; Function Attrs: inlinehint nounwind sspstrong memory(argmem: readwrite, inaccessiblemem: readwrite) uwtable
define internal fastcc range(i64 1, 0) i64 @rbimpl_intern_const(ptr noundef nonnull captures(none) %0, ptr noundef nonnull %1) unnamed_addr #11 {
  %.pr = load i64, ptr %0, align 8, !tbaa !6
  %.not4 = icmp eq i64 %.pr, 0
  br i1 %.not4, label %.lr.ph, label %._crit_edge

.lr.ph:                                           ; preds = %2, %.lr.ph
  %3 = tail call i64 @strlen(ptr noundef nonnull dereferenceable(1) %1) #24
  %4 = tail call i64 @rb_intern2(ptr noundef nonnull %1, i64 noundef %3) #21
  store i64 %4, ptr %0, align 8, !tbaa !6
  %.not = icmp eq i64 %4, 0
  br i1 %.not, label %.lr.ph, label %._crit_edge, !llvm.loop !51

._crit_edge:                                      ; preds = %.lr.ph, %2
  %.lcssa = phi i64 [ %.pr, %2 ], [ %4, %.lr.ph ]
  ret i64 %.lcssa
}